Certificate:
    Data:
        Version: 3 (0x2)
        Serial Number: 4096 (0x1000)
        Signature Algorithm: sha256WithRSAEncryption
        Issuer: C=FR, ST=Lyon, L=Lyon, O=Test CA Pty Ltd, OU=Server Security Research Department, CN=Test CA/emailAddress=test@example.com
        Validity
            Not Before: Oct 29 15:57:15 2023 GMT
            Not After : Mar 16 15:57:15 2051 GMT
        Subject: C=FR, ST=BKK, L=Lyon, O=Test CA Pty Ltd, CN=Test Client
        Subject Public Key Info:
            Public Key Algorithm: rsaEncryption
                Public-Key: (2048 bit)
                Modulus:
                    00:a0:d7:a5:c2:22:9f:0d:21:7f:b6:c3:f3:bb:c4:
                    55:c1:d9:62:0d:f7:c4:00:13:25:c0:2f:f3:41:c0:
                    f2:c6:3b:6f:4f:27:7a:13:68:1e:57:64:32:be:a2:
                    a2:2b:b7:59:5a:96:05:24:52:59:78:e4:2c:c5:e3:
                    71:db:06:e6:c4:7e:c0:39:38:27:e4:a2:7a:3f:e5:
                    6d:0c:f9:31:7e:41:2c:08:01:d9:c4:a4:23:27:f4:
                    bf:66:8b:aa:82:d2:87:f0:1b:5b:37:11:b5:83:bc:
                    c5:df:95:9c:7e:1f:86:a0:3d:57:de:ed:70:d2:66:
                    1b:5c:76:b1:58:bf:04:95:58:25:20:ef:1c:6b:97:
                    9a:4a:02:0c:81:cd:5d:c0:b3:2d:fe:b3:cf:88:ab:
                    fd:02:0f:b8:6c:42:17:89:96:c7:13:8f:6b:ef:ae:
                    9c:ce:ea:69:46:99:79:6f:99:a8:24:dd:2f:b9:02:
                    d9:32:a6:9d:4b:00:ba:2b:4b:c8:fb:c7:d9:82:c0:
                    d5:33:6b:46:f8:ac:2c:96:62:eb:60:2b:39:06:70:
                    92:04:5f:fa:76:46:34:1e:90:bd:17:6e:7a:3d:03:
                    ac:11:6f:96:4e:02:53:5f:f3:31:57:85:b4:57:12:
                    18:d4:c6:87:05:d1:5d:41:4f:49:b7:67:02:5e:fa:
                    6c:bf
                Exponent: 65537 (0x10001)
        X509v3 extensions:
            X509v3 Subject Key Identifier: 
                FC:7E:DC:F0:49:4A:72:29:AE:00:24:F6:D4:06:AC:27:CB:E7:B3:8D
            X509v3 Authority Key Identifier: 
                4A:11:46:14:33:89:96:62:7D:88:B0:24:A7:1D:4C:1C:84:CA:A4:DD
            X509v3 Basic Constraints: 
                CA:FALSE
            X509v3 Key Usage: 
                Digital Signature, Key Encipherment
            X509v3 Subject Alternative Name: 
                DNS:test, DNS:test.example.com
            Netscape Comment: 
                OpenSSL Generated Certificate
    Signature Algorithm: sha256WithRSAEncryption
    Signature Value:
        56:97:9d:3f:1d:4c:af:56:a2:57:38:d7:42:fd:7a:df:5f:7e:
        ed:d2:b1:dd:45:3a:de:2b:de:8c:29:ac:61:65:0f:a3:6d:0a:
        75:20:af:46:48:d9:60:e8:1d:fa:d6:4f:92:ea:f9:25:5f:3f:
        08:9e:f1:47:91:7d:17:7f:46:59:91:58:4f:92:1e:cd:e6:e3:
        b7:9f:37:3e:d1:38:76:48:5f:23:1d:54:f6:d5:70:48:fb:5c:
        a9:ea:df:57:38:d2:bf:11:31:2e:cd:3f:d9:f4:24:98:2b:bf:
        81:87:26:6f:1c:4d:3e:6b:40:c6:19:8b:76:63:22:27:bc:52:
        14:9a:5a:f1:ed:38:c9:46:6d:e5:b7:2e:e8:d4:29:40:88:0a:
        60:ec:7c:96:c4:0c:d0:f5:d5:c9:3b:98:9e:9a:c1:eb:e2:2b:
        4a:c8:9b:ee:6c:af:6d:fa:16:fa:bc:3e:23:f8:b0:f1:e4:c1:
        82:3c:9f:6d:d2:f4:55:98:ea:66:e8:31:ca:56:c0:3f:04:cc:
        e5:4e:31:00:7c:f7:69:1e:8c:65:e9:5d:c0:a4:32:43:4a:49:
        af:04:6d:db:c8:b0:ab:94:3b:23:2f:aa:5f:67:db:d8:0e:be:
        7f:9a:f1:a4:88:06:b4:f9:e2:8c:2d:5c:3b:3d:40:21:70:b5:
        9f:0c:ee:4f:2d:c8:26:c9:49:e3:c4:22:9c:be:be:70:b7:3d:
        2f:55:cb:a7:c4:ed:0a:65:20:57:f5:1b:e9:fe:d0:65:59:97:
        64:c7:4b:32:70:58:f8:f5:cc:6f:82:0d:12:bc:c8:80:32:c3:
        ba:f3:08:56:28:94:db:ff:e5:08:de:37:54:0d:d2:3f:55:53:
        5f:e2:e9:69:3d:b9:c3:58:44:17:20:9e:32:2b:fc:3c:34:99:
        13:3a:b6:eb:ea:0b:00:d2:ed:00:16:40:4e:cb:11:4f:08:4e:
        0f:ad:f2:e1:c7:00:0e:c8:51:73:00:00:36:7c:a8:14:26:54:
        df:b2:16:c4:b5:c0:b0:3d:d0:fd:1c:1b:ee:c6:4d:ab:12:84:
        d0:58:88:14:39:e3:60:e2:0d:4f:4d:18:03:51:1a:7b:8f:d3:
        10:fb:77:26:a8:47:e8:95:92:bf:df:a8:6e:43:5a:d8:e3:bd:
        04:c2:a0:b1:c3:97:af:5e:c0:c3:47:3d:29:f3:26:a3:38:6e:
        0c:74:ea:6e:27:42:1a:fd:10:9a:c1:d2:70:2f:1b:cb:cc:a6:
        0a:6a:20:1e:bf:34:0c:ba:da:a6:06:06:50:03:7d:60:bb:98:
        35:8a:c5:01:6d:45:d2:65:8f:af:5e:9e:4d:0b:04:f7:d0:62:
        51:c8:ee:eb:de:04:8d:30
-----BEGIN CERTIFICATE-----
MIIFLDCCAxSgAwIBAgICEAAwDQYJKoZIhvcNAQELBQAwgaYxCzAJBgNVBAYTAkZS
MQ0wCwYDVQQIDARMeW9uMQ0wCwYDVQQHDARMeW9uMRgwFgYDVQQKDA9UZXN0IENB
IFB0eSBMdGQxLDAqBgNVBAsMI1NlcnZlciBTZWN1cml0eSBSZXNlYXJjaCBEZXBh
cnRtZW50MRAwDgYDVQQDDAdUZXN0IENBMR8wHQYJKoZIhvcNAQkBFhB0ZXN0QGV4
YW1wbGUuY29tMCAXDTIzMTAyOTE1NTcxNVoYDzIwNTEwMzE2MTU1NzE1WjBaMQsw
CQYDVQQGEwJGUjEMMAoGA1UECAwDQktLMQ0wCwYDVQQHDARMeW9uMRgwFgYDVQQK
DA9UZXN0IENBIFB0eSBMdGQxFDASBgNVBAMMC1Rlc3QgQ2xpZW50MIIBIjANBgkq
hkiG9w0BAQEFAAOCAQ8AMIIBCgKCAQEAoNelwiKfDSF/tsPzu8RVwdliDffEABMl
wC/zQcDyxjtvTyd6E2geV2QyvqKiK7dZWpYFJFJZeOQsxeNx2wbmxH7AOTgn5KJ6
P+VtDPkxfkEsCAHZxKQjJ/S/ZouqgtKH8BtbNxG1g7zF35Wcfh+GoD1X3u1w0mYb
XHaxWL8ElVglIO8ca5eaSgIMgc1dwLMt/rPPiKv9Ag+4bEIXiZbHE49r766czupp
Rpl5b5moJN0vuQLZMqadSwC6K0vI+8fZgsDVM2tG+KwslmLrYCs5BnCSBF/6dkY0
HpC9F256PQOsEW+WTgJTX/MxV4W0VxIY1MaHBdFdQU9Jt2cCXvpsvwIDAQABo4Gs
MIGpMB0GA1UdDgQWBBT8ftzwSUpyKa4AJPbUBqwny+ezjTAfBgNVHSMEGDAWgBRK
EUYUM4mWYn2IsCSnHUwchMqk3TAJBgNVHRMEAjAAMAsGA1UdDwQEAwIFoDAhBgNV
HREEGjAYggR0ZXN0ghB0ZXN0LmV4YW1wbGUuY29tMCwGCWCGSAGG+EIBDQQfFh1P
cGVuU1NMIEdlbmVyYXRlZCBDZXJ0aWZpY2F0ZTANBgkqhkiG9w0BAQsFAAOCAgEA
VpedPx1Mr1aiVzjXQv16319+7dKx3UU63ivejCmsYWUPo20KdSCvRkjZYOgd+tZP
kur5JV8/CJ7xR5F9F39GWZFYT5Iezebjt583PtE4dkhfIx1U9tVwSPtcqerfVzjS
vxExLs0/2fQkmCu/gYcmbxxNPmtAxhmLdmMiJ7xSFJpa8e04yUZt5bcu6NQpQIgK
YOx8lsQM0PXVyTuYnprB6+IrSsib7myvbfoW+rw+I/iw8eTBgjyfbdL0VZjqZugx
ylbAPwTM5U4xAHz3aR6MZeldwKQyQ0pJrwRt28iwq5Q7Iy+qX2fb2A6+f5rxpIgG
tPnijC1cOz1AIXC1nwzuTy3IJslJ48QinL6+cLc9L1XLp8TtCmUgV/Ub6f7QZVmX
ZMdLMnBY+PXMb4INErzIgDLDuvMIViiU2//lCN43VA3SP1VTX+LpaT25w1hEFyCe
Miv8PDSZEzq26+oLANLtABZATssRTwhOD63y4ccADshRcwAANnyoFCZU37IWxLXA
sD3Q/Rwb7sZNqxKE0FiIFDnjYOINT00YA1Eae4/TEPt3JqhH6JWSv9+obkNa2OO9
BMKgscOXr17Aw0c9KfMmozhuDHTqbidCGv0QmsHScC8by8ymCmogHr80DLrapgYG
UAN9YLuYNYrFAW1F0mWPr16eTQsE99BiUcju694EjTA=
-----END CERTIFICATE-----
